target datalayout = "e-m:e-p270:32:32-p271:32:32-p272:64:64-i64:64-i128:128-f80:128-n8:16:32:64-S128"
target triple = "x86_64-pc-linux-gnu"

%struct.lzma_outq = type { ptr, ptr, i64, ptr, i64, i64, i32, i32, i32 }
%struct.lzma_outbuf_s = type { ptr, ptr, i64, i64, i64, i8, i32, i64, i64, [0 x i8] }

; Function Attrs: nounwind uwtable
define internal void @free_one_cached_buffer(ptr noundef %0, ptr noundef %1) #0 {
  %3 = alloca ptr, align 8
  %4 = alloca ptr, align 8
  %5 = alloca ptr, align 8
  store ptr %0, ptr %3, align 8, !tbaa !10
  store ptr %1, ptr %4, align 8, !tbaa !10
  call void @llvm.lifetime.start.p0(i64 8, ptr %5) #4
  %6 = load ptr, ptr %3, align 8, !tbaa !10
  %7 = getelementptr inbounds nuw %struct.lzma_outq, ptr %6, i32 0, i32 3
  %8 = load ptr, ptr %7, align 8, !tbaa !12
  store ptr %8, ptr %5, align 8, !tbaa !17
  %9 = load ptr, ptr %5, align 8, !tbaa !17
  %10 = getelementptr inbounds nuw %struct.lzma_outbuf_s, ptr %9, i32 0, i32 0
  %11 = load ptr, ptr %10, align 8, !tbaa !17
  %12 = load ptr, ptr %3, align 8, !tbaa !10
  %13 = getelementptr inbounds nuw %struct.lzma_outq, ptr %12, i32 0, i32 3
  store ptr %11, ptr %13, align 8, !tbaa !12
  %14 = load ptr, ptr %3, align 8, !tbaa !10
  %15 = getelementptr inbounds nuw %struct.lzma_outq, ptr %14, i32 0, i32 7
  %16 = load i32, ptr %15, align 4, !tbaa !18
  %17 = add i32 %16, -1
  store i32 %17, ptr %15, align 4, !tbaa !18
  %18 = load ptr, ptr %5, align 8, !tbaa !17
  %19 = getelementptr inbounds nuw %struct.lzma_outbuf_s, ptr %18, i32 0, i32 2
  %20 = load i64, ptr %19, align 8, !tbaa !4
  %21 = call i64 @lzma_outq_outbuf_memusage(i64 noundef %20)
  %22 = load ptr, ptr %3, align 8, !tbaa !10
  %23 = getelementptr inbounds nuw %struct.lzma_outq, ptr %22, i32 0, i32 4
  %24 = load i64, ptr %23, align 8, !tbaa !19
  %25 = sub i64 %24, %21
  store i64 %25, ptr %23, align 8, !tbaa !19
  %26 = load ptr, ptr %5, align 8, !tbaa !17
  %27 = load ptr, ptr %4, align 8, !tbaa !10
  call void @lzma_free(ptr noundef %26, ptr noundef %27)
  call void @llvm.lifetime.end.p0(i64 8, ptr %5) #4
  ret void
}

; Function Attrs: inlinehint nounwind uwtable
define internal i64 @lzma_outq_outbuf_memusage(i64 noundef %0) #2 {
  %2 = alloca i64, align 8
  store i64 %0, ptr %2, align 8, !tbaa !4
  %3 = load i64, ptr %2, align 8, !tbaa !4
  %4 = add i64 64, %3
  ret i64 %4
}

; Function Attrs: nounwind uwtable
define dso_local void @lzma_outq_clear_cache(ptr noundef %0, ptr noundef %1) #0 {
  %3 = alloca ptr, align 8
  %4 = alloca ptr, align 8
  store ptr %0, ptr %3, align 8, !tbaa !10
  store ptr %1, ptr %4, align 8, !tbaa !10
  br label %5

5:                                                ; preds = %10, %2
  %6 = load ptr, ptr %3, align 8, !tbaa !10
  %7 = getelementptr inbounds nuw %struct.lzma_outq, ptr %6, i32 0, i32 3
  %8 = load ptr, ptr %7, align 8, !tbaa !12
  %9 = icmp ne ptr %8, null
  br i1 %9, label %10, label %13

10:                                               ; preds = %5
  %11 = load ptr, ptr %3, align 8, !tbaa !10
  %12 = load ptr, ptr %4, align 8, !tbaa !10
  call void @free_one_cached_buffer(ptr noundef %11, ptr noundef %12)
  br label %5, !llvm.loop !15

13:                                               ; preds = %5
  ret void
}

; Function Attrs: nounwind uwtable
define internal void @move_head_to_cache(ptr noundef %0, ptr noundef %1) #0 {
  %3 = alloca ptr, align 8
  %4 = alloca ptr, align 8
  %5 = alloca ptr, align 8
  store ptr %0, ptr %3, align 8, !tbaa !10
  store ptr %1, ptr %4, align 8, !tbaa !10
  call void @llvm.lifetime.start.p0(i64 8, ptr %5) #4
  %6 = load ptr, ptr %3, align 8, !tbaa !10
  %7 = getelementptr inbounds nuw %struct.lzma_outq, ptr %6, i32 0, i32 0
  %8 = load ptr, ptr %7, align 8, !tbaa !21
  store ptr %8, ptr %5, align 8, !tbaa !17
  %9 = load ptr, ptr %5, align 8, !tbaa !17
  %10 = getelementptr inbounds nuw %struct.lzma_outbuf_s, ptr %9, i32 0, i32 0
  %11 = load ptr, ptr %10, align 8, !tbaa !17
  %12 = load ptr, ptr %3, align 8, !tbaa !10
  %13 = getelementptr inbounds nuw %struct.lzma_outq, ptr %12, i32 0, i32 0
  store ptr %11, ptr %13, align 8, !tbaa !21
  %14 = load ptr, ptr %3, align 8, !tbaa !10
  %15 = getelementptr inbounds nuw %struct.lzma_outq, ptr %14, i32 0, i32 0
  %16 = load ptr, ptr %15, align 8, !tbaa !21
  %17 = icmp eq ptr %16, null
  br i1 %17, label %18, label %21

18:                                               ; preds = %2
  %19 = load ptr, ptr %3, align 8, !tbaa !10
  %20 = getelementptr inbounds nuw %struct.lzma_outq, ptr %19, i32 0, i32 1
  store ptr null, ptr %20, align 8, !tbaa !26
  br label %21

21:                                               ; preds = %18, %2
  %22 = load ptr, ptr %3, align 8, !tbaa !10
  %23 = getelementptr inbounds nuw %struct.lzma_outq, ptr %22, i32 0, i32 3
  %24 = load ptr, ptr %23, align 8, !tbaa !12
  %25 = icmp ne ptr %24, null
  br i1 %25, label %26, label %39

26:                                               ; preds = %21
  %27 = load ptr, ptr %3, align 8, !tbaa !10
  %28 = getelementptr inbounds nuw %struct.lzma_outq, ptr %27, i32 0, i32 3
  %29 = load ptr, ptr %28, align 8, !tbaa !12
  %30 = getelementptr inbounds nuw %struct.lzma_outbuf_s, ptr %29, i32 0, i32 2
  %31 = load i64, ptr %30, align 8, !tbaa !4
  %32 = load ptr, ptr %5, align 8, !tbaa !17
  %33 = getelementptr inbounds nuw %struct.lzma_outbuf_s, ptr %32, i32 0, i32 2
  %34 = load i64, ptr %33, align 8, !tbaa !4
  %35 = icmp ne i64 %31, %34
  br i1 %35, label %36, label %39

36:                                               ; preds = %26
  %37 = load ptr, ptr %3, align 8, !tbaa !10
  %38 = load ptr, ptr %4, align 8, !tbaa !10
  call void @lzma_outq_clear_cache(ptr noundef %37, ptr noundef %38)
  br label %39

39:                                               ; preds = %36, %26, %21
  %40 = load ptr, ptr %3, align 8, !tbaa !10
  %41 = getelementptr inbounds nuw %struct.lzma_outq, ptr %40, i32 0, i32 3
  %42 = load ptr, ptr %41, align 8, !tbaa !12
  %43 = load ptr, ptr %5, align 8, !tbaa !17
  %44 = getelementptr inbounds nuw %struct.lzma_outbuf_s, ptr %43, i32 0, i32 0
  store ptr %42, ptr %44, align 8, !tbaa !17
  %45 = load ptr, ptr %5, align 8, !tbaa !17
  %46 = load ptr, ptr %3, align 8, !tbaa !10
  %47 = getelementptr inbounds nuw %struct.lzma_outq, ptr %46, i32 0, i32 3
  store ptr %45, ptr %47, align 8, !tbaa !12
  %48 = load ptr, ptr %3, align 8, !tbaa !10
  %49 = getelementptr inbounds nuw %struct.lzma_outq, ptr %48, i32 0, i32 6
  %50 = load i32, ptr %49, align 8, !tbaa !27
  %51 = add i32 %50, -1
  store i32 %51, ptr %49, align 8, !tbaa !27
  %52 = load ptr, ptr %5, align 8, !tbaa !17
  %53 = getelementptr inbounds nuw %struct.lzma_outbuf_s, ptr %52, i32 0, i32 2
  %54 = load i64, ptr %53, align 8, !tbaa !4
  %55 = call i64 @lzma_outq_outbuf_memusage(i64 noundef %54)
  %56 = load ptr, ptr %3, align 8, !tbaa !10
  %57 = getelementptr inbounds nuw %struct.lzma_outq, ptr %56, i32 0, i32 5
  %58 = load i64, ptr %57, align 8, !tbaa !28
  %59 = sub i64 %58, %55
  store i64 %59, ptr %57, align 8, !tbaa !28
  call void @llvm.lifetime.end.p0(i64 8, ptr %5) #4
  ret void
}

; Function Attrs: nounwind uwtable
define dso_local i32 @lzma_outq_read(ptr noalias noundef %0, ptr noalias noundef %1, ptr noalias noundef %2, ptr noalias noundef %3, i64 noundef %4, ptr noalias noundef %5, ptr noalias noundef %6) #0 {
  %8 = alloca i32, align 4
  %9 = alloca ptr, align 8
  %10 = alloca ptr, align 8
  %11 = alloca ptr, align 8
  %12 = alloca ptr, align 8
  %13 = alloca i64, align 8
  %14 = alloca ptr, align 8
  %15 = alloca ptr, align 8
  %16 = alloca ptr, align 8
  %17 = alloca i32, align 4
  %18 = alloca i32, align 4
  store ptr %0, ptr %9, align 8, !tbaa !10
  store ptr %1, ptr %10, align 8, !tbaa !10
  store ptr %2, ptr %11, align 8, !tbaa !34
  store ptr %3, ptr %12, align 8, !tbaa !36
  store i64 %4, ptr %13, align 8, !tbaa !4
  store ptr %5, ptr %14, align 8, !tbaa !36
  store ptr %6, ptr %15, align 8, !tbaa !36
  %19 = load ptr, ptr %9, align 8, !tbaa !10
  %20 = getelementptr inbounds nuw %struct.lzma_outq, ptr %19, i32 0, i32 6
  %21 = load i32, ptr %20, align 8, !tbaa !27
  %22 = icmp eq i32 %21, 0
  br i1 %22, label %23, label %24

23:                                               ; preds = %7
  store i32 0, ptr %8, align 4
  br label %79

24:                                               ; preds = %7
  call void @llvm.lifetime.start.p0(i64 8, ptr %16) #4
  %25 = load ptr, ptr %9, align 8, !tbaa !10
  %26 = getelementptr inbounds nuw %struct.lzma_outq, ptr %25, i32 0, i32 0
  %27 = load ptr, ptr %26, align 8, !tbaa !21
  store ptr %27, ptr %16, align 8, !tbaa !17
  %28 = load ptr, ptr %16, align 8, !tbaa !17
  %29 = getelementptr inbounds nuw %struct.lzma_outbuf_s, ptr %28, i32 0, i32 9
  %30 = getelementptr inbounds [0 x i8], ptr %29, i64 0, i64 0
  %31 = load ptr, ptr %9, align 8, !tbaa !10
  %32 = getelementptr inbounds nuw %struct.lzma_outq, ptr %31, i32 0, i32 2
  %33 = load ptr, ptr %16, align 8, !tbaa !17
  %34 = getelementptr inbounds nuw %struct.lzma_outbuf_s, ptr %33, i32 0, i32 3
  %35 = load i64, ptr %34, align 8, !tbaa !4
  %36 = load ptr, ptr %11, align 8, !tbaa !34
  %37 = load ptr, ptr %12, align 8, !tbaa !36
  %38 = load i64, ptr %13, align 8, !tbaa !4
  %39 = call i64 @lzma_bufcpy(ptr noundef %30, ptr noundef %32, i64 noundef %35, ptr noundef %36, ptr noundef %37, i64 noundef %38)
  %40 = load ptr, ptr %16, align 8, !tbaa !17
  %41 = getelementptr inbounds nuw %struct.lzma_outbuf_s, ptr %40, i32 0, i32 5
  %42 = load i8, ptr %41, align 8, !tbaa !30, !range !32, !noundef !33
  %43 = trunc i8 %42 to i1
  br i1 %43, label %44, label %52

44:                                               ; preds = %24
  %45 = load ptr, ptr %9, align 8, !tbaa !10
  %46 = getelementptr inbounds nuw %struct.lzma_outq, ptr %45, i32 0, i32 2
  %47 = load i64, ptr %46, align 8, !tbaa !25
  %48 = load ptr, ptr %16, align 8, !tbaa !17
  %49 = getelementptr inbounds nuw %struct.lzma_outbuf_s, ptr %48, i32 0, i32 3
  %50 = load i64, ptr %49, align 8, !tbaa !4
  %51 = icmp ult i64 %47, %50
  br i1 %51, label %52, label %53

52:                                               ; preds = %44, %24
  store i32 0, ptr %8, align 4
  store i32 1, ptr %17, align 4
  br label %78

53:                                               ; preds = %44
  %54 = load ptr, ptr %14, align 8, !tbaa !36
  %55 = icmp ne ptr %54, null
  br i1 %55, label %56, label %61

56:                                               ; preds = %53
  %57 = load ptr, ptr %16, align 8, !tbaa !17
  %58 = getelementptr inbounds nuw %struct.lzma_outbuf_s, ptr %57, i32 0, i32 7
  %59 = load i64, ptr %58, align 8, !tbaa !4
  %60 = load ptr, ptr %14, align 8, !tbaa !36
  store i64 %59, ptr %60, align 8, !tbaa !4
  br label %61

61:                                               ; preds = %56, %53
  %62 = load ptr, ptr %15, align 8, !tbaa !36
  %63 = icmp ne ptr %62, null
  br i1 %63, label %64, label %69

64:                                               ; preds = %61
  %65 = load ptr, ptr %16, align 8, !tbaa !17
  %66 = getelementptr inbounds nuw %struct.lzma_outbuf_s, ptr %65, i32 0, i32 8
  %67 = load i64, ptr %66, align 8, !tbaa !4
  %68 = load ptr, ptr %15, align 8, !tbaa !36
  store i64 %67, ptr %68, align 8, !tbaa !4
  br label %69

69:                                               ; preds = %64, %61
  call void @llvm.lifetime.start.p0(i64 4, ptr %18) #4
  %70 = load ptr, ptr %16, align 8, !tbaa !17
  %71 = getelementptr inbounds nuw %struct.lzma_outbuf_s, ptr %70, i32 0, i32 6
  %72 = load i32, ptr %71, align 4, !tbaa !8
  store i32 %72, ptr %18, align 4, !tbaa !8
  %73 = load ptr, ptr %9, align 8, !tbaa !10
  %74 = load ptr, ptr %10, align 8, !tbaa !10
  call void @move_head_to_cache(ptr noundef %73, ptr noundef %74)
  %75 = load ptr, ptr %9, align 8, !tbaa !10
  %76 = getelementptr inbounds nuw %struct.lzma_outq, ptr %75, i32 0, i32 2
  store i64 0, ptr %76, align 8, !tbaa !25
  %77 = load i32, ptr %18, align 4, !tbaa !8
  store i32 %77, ptr %8, align 4
  store i32 1, ptr %17, align 4
  call void @llvm.lifetime.end.p0(i64 4, ptr %18) #4
  br label %78

78:                                               ; preds = %69, %52
  call void @llvm.lifetime.end.p0(i64 8, ptr %16) #4
  br label %79

79:                                               ; preds = %78, %23
  %80 = load i32, ptr %8, align 4
  ret i32 %80
}