; Function Attrs: nounwind uwtable
define dso_local i32 @lzma_outq_read(ptr noalias noundef %0, ptr noalias noundef %1, ptr noalias noundef %2, ptr noalias noundef %3, i64 noundef %4, ptr noalias noundef writeonly %5, ptr noalias noundef writeonly %6) local_unnamed_addr #1 {
  %8 = getelementptr inbounds nuw i8, ptr %0, i64 48
  %9 = load i32, ptr %8, align 8, !tbaa !21
  %10 = icmp eq i32 %9, 0
  br i1 %10, label %69, label %11

11:                                               ; preds = %7
  %12 = load ptr, ptr %0, align 8, !tbaa !19
  %13 = getelementptr inbounds nuw i8, ptr %12, i64 64
  %14 = getelementptr inbounds nuw i8, ptr %0, i64 16
  %15 = getelementptr inbounds nuw i8, ptr %12, i64 24
  %16 = load i64, ptr %15, align 8, !tbaa !14
  %17 = tail call i64 @lzma_bufcpy(ptr noundef nonnull %13, ptr noundef nonnull %14, i64 noundef %16, ptr noundef %2, ptr noundef %3, i64 noundef %4) #6
  %18 = getelementptr inbounds nuw i8, ptr %12, i64 40
  %19 = load i8, ptr %18, align 8, !tbaa !29, !range !32, !noundef !33
  %20 = trunc nuw i8 %19 to i1
  br i1 %20, label %21, label %69

21:                                               ; preds = %11
  %22 = load i64, ptr %14, align 8, !tbaa !26
  %23 = load i64, ptr %15, align 8, !tbaa !14
  %24 = icmp ult i64 %22, %23
  br i1 %24, label %69, label %25

25:                                               ; preds = %21
  %.not = icmp eq ptr %5, null
  br i1 %.not, label %29, label %26

26:                                               ; preds = %25
  %27 = getelementptr inbounds nuw i8, ptr %12, i64 48
  %28 = load i64, ptr %27, align 8, !tbaa !14
  store i64 %28, ptr %5, align 8, !tbaa !14
  br label %29

29:                                               ; preds = %26, %25
  %.not24 = icmp eq ptr %6, null
  br i1 %.not24, label %33, label %30

30:                                               ; preds = %29
  %31 = getelementptr inbounds nuw i8, ptr %12, i64 56
  %32 = load i64, ptr %31, align 8, !tbaa !14
  store i64 %32, ptr %6, align 8, !tbaa !14
  br label %33

33:                                               ; preds = %30, %29
  %34 = getelementptr inbounds nuw i8, ptr %12, i64 44
  %35 = load i32, ptr %34, align 4, !tbaa !31
  %36 = load ptr, ptr %0, align 8, !tbaa !19
  %37 = load ptr, ptr %36, align 8, !tbaa !12
  store ptr %37, ptr %0, align 8, !tbaa !19
  %38 = icmp eq ptr %37, null
  br i1 %38, label %39, label %41

39:                                               ; preds = %33
  %40 = getelementptr inbounds nuw i8, ptr %0, i64 8
  store ptr null, ptr %40, align 8, !tbaa !20
  br label %41

41:                                               ; preds = %39, %33
  %42 = getelementptr inbounds nuw i8, ptr %0, i64 24
  %43 = load ptr, ptr %42, align 8, !tbaa !4
  %.not.i = icmp eq ptr %43, null
  br i1 %.not.i, label %move_head_to_cache.exit, label %44

44:                                               ; preds = %41
  %45 = getelementptr inbounds nuw i8, ptr %43, i64 16
  %46 = load i64, ptr %45, align 8, !tbaa !14
  %47 = getelementptr inbounds nuw i8, ptr %36, i64 16
  %48 = load i64, ptr %47, align 8, !tbaa !14
  %.not17.i = icmp eq i64 %46, %48
  br i1 %.not17.i, label %move_head_to_cache.exit, label %.lr.ph.i.i

.lr.ph.i.i:                                       ; preds = %44
  %49 = getelementptr inbounds nuw i8, ptr %0, i64 52
  %50 = getelementptr inbounds nuw i8, ptr %0, i64 32
  br label %51

51:                                               ; preds = %51, %.lr.ph.i.i
  %52 = phi ptr [ %43, %.lr.ph.i.i ], [ %60, %51 ]
  %53 = load ptr, ptr %52, align 8, !tbaa !12
  store ptr %53, ptr %42, align 8, !tbaa !4
  %54 = load i32, ptr %49, align 4, !tbaa !13
  %55 = add i32 %54, -1
  store i32 %55, ptr %49, align 4, !tbaa !13
  %56 = getelementptr inbounds nuw i8, ptr %52, i64 16
  %57 = load i64, ptr %56, align 8, !tbaa !14
  %58 = load i64, ptr %50, align 8, !tbaa !15
  %reass.sub = sub i64 %58, %57
  %59 = add i64 %reass.sub, -64
  store i64 %59, ptr %50, align 8, !tbaa !15
  tail call void @lzma_free(ptr noundef nonnull %52, ptr noundef %1) #6
  %60 = load ptr, ptr %42, align 8, !tbaa !4
  %.not.i.i = icmp eq ptr %60, null
  br i1 %.not.i.i, label %move_head_to_cache.exit, label %51, !llvm.loop !16

move_head_to_cache.exit:                          ; preds = %51, %41, %44
  %61 = phi ptr [ %43, %44 ], [ null, %41 ], [ null, %51 ]
  store ptr %61, ptr %36, align 8, !tbaa !12
  store ptr %36, ptr %42, align 8, !tbaa !4
  %62 = load i32, ptr %8, align 8, !tbaa !21
  %63 = add i32 %62, -1
  store i32 %63, ptr %8, align 8, !tbaa !21
  %64 = getelementptr inbounds nuw i8, ptr %36, i64 16
  %65 = load i64, ptr %64, align 8, !tbaa !14
  %66 = getelementptr inbounds nuw i8, ptr %0, i64 40
  %67 = load i64, ptr %66, align 8, !tbaa !22
  %reass.sub26 = sub i64 %67, %65
  %68 = add i64 %reass.sub26, -64
  store i64 %68, ptr %66, align 8, !tbaa !22
  store i64 0, ptr %14, align 8, !tbaa !26
  br label %69

69:                                               ; preds = %move_head_to_cache.exit, %21, %11, %7
  %.0 = phi i32 [ 0, %7 ], [ %35, %move_head_to_cache.exit ], [ 0, %21 ], [ 0, %11 ]
  ret i32 %.0
}